; Function Attrs: nounwind uwtable
define dso_local void @recordDependencyOnExpr(ptr noundef %0, ptr noundef %1, ptr noundef %2, i32 noundef %3) local_unnamed_addr #0 {
  %5 = alloca %struct.find_expr_references_context, align 8
  call void @llvm.lifetime.start.p0(i64 16, ptr nonnull %5) #9
  %6 = tail call ptr @palloc(i64 noundef 24) #9
  %7 = getelementptr inbounds nuw i8, ptr %6, i64 16
  store i32 0, ptr %7, align 8
  %8 = getelementptr inbounds nuw i8, ptr %6, i64 20
  store i32 32, ptr %8, align 4
  %9 = tail call ptr @palloc(i64 noundef 384) #9
  store ptr %9, ptr %6, align 8
  %10 = getelementptr inbounds nuw i8, ptr %6, i64 8
  store ptr null, ptr %10, align 8
  store ptr %6, ptr %5, align 8
  %11 = tail call ptr @list_make1_impl(i32 noundef 1, ptr %2) #9
  %12 = getelementptr inbounds nuw i8, ptr %5, i64 8
  store ptr %11, ptr %12, align 8
  %13 = call zeroext i1 @find_expr_references_walker(ptr noundef %1, ptr noundef nonnull %5)
  %14 = load ptr, ptr %5, align 8
  %15 = getelementptr inbounds nuw i8, ptr %14, i64 16
  %16 = load i32, ptr %15, align 8
  %17 = icmp slt i32 %16, 2
  br i1 %17, label %eliminate_duplicate_dependencies.exit, label %18

18:                                               ; preds = %4
  %19 = load ptr, ptr %14, align 8
  %20 = zext nneg i32 %16 to i64
  call void @pg_qsort(ptr noundef %19, i64 noundef %20, i64 noundef 12, ptr noundef nonnull @object_address_comparator) #9
  %21 = load i32, ptr %15, align 8
  %22 = icmp sgt i32 %21, 1
  br i1 %22, label %.lr.ph.preheader.i, label %._crit_edge.i

.lr.ph.preheader.i:                               ; preds = %18
  %23 = load ptr, ptr %14, align 8
  br label %.lr.ph.i

.lr.ph.i:                                         ; preds = %47, %.lr.ph.preheader.i
  %indvars.iv.i = phi i64 [ 1, %.lr.ph.preheader.i ], [ %indvars.iv.next.i, %47 ]
  %.031.i = phi ptr [ %23, %.lr.ph.preheader.i ], [ %.1.i, %47 ]
  %.02330.i = phi i32 [ 1, %.lr.ph.preheader.i ], [ %.124.i, %47 ]
  %24 = load ptr, ptr %14, align 8
  %25 = getelementptr inbounds nuw %struct.ObjectAddress, ptr %24, i64 %indvars.iv.i
  %26 = load i32, ptr %.031.i, align 4
  %27 = load i32, ptr %25, align 4
  %28 = icmp eq i32 %26, %27
  br i1 %28, label %29, label %44

29:                                               ; preds = %.lr.ph.i
  %30 = getelementptr inbounds nuw i8, ptr %.031.i, i64 4
  %31 = load i32, ptr %30, align 4
  %32 = getelementptr inbounds nuw i8, ptr %25, i64 4
  %33 = load i32, ptr %32, align 4
  %34 = icmp eq i32 %31, %33
  br i1 %34, label %35, label %44

35:                                               ; preds = %29
  %36 = getelementptr inbounds nuw i8, ptr %.031.i, i64 8
  %37 = load i32, ptr %36, align 4
  %38 = getelementptr inbounds nuw i8, ptr %25, i64 8
  %39 = load i32, ptr %38, align 4
  %40 = icmp eq i32 %37, %39
  br i1 %40, label %47, label %41

41:                                               ; preds = %35
  %42 = icmp eq i32 %37, 0
  br i1 %42, label %43, label %44

43:                                               ; preds = %41
  store i32 %39, ptr %36, align 4
  br label %47

44:                                               ; preds = %41, %29, %.lr.ph.i
  %45 = getelementptr inbounds nuw i8, ptr %.031.i, i64 12
  call void @llvm.memcpy.p0.p0.i64(ptr noundef nonnull align 4 dereferenceable(12) %45, ptr noundef nonnull align 4 dereferenceable(12) %25, i64 12, i1 false)
  %46 = add i32 %.02330.i, 1
  br label %47

47:                                               ; preds = %44, %43, %35
  %.124.i = phi i32 [ %.02330.i, %43 ], [ %46, %44 ], [ %.02330.i, %35 ]
  %.1.i = phi ptr [ %.031.i, %43 ], [ %45, %44 ], [ %.031.i, %35 ]
  %indvars.iv.next.i = add nuw nsw i64 %indvars.iv.i, 1
  %48 = load i32, ptr %15, align 8
  %49 = sext i32 %48 to i64
  %50 = icmp slt i64 %indvars.iv.next.i, %49
  br i1 %50, label %.lr.ph.i, label %._crit_edge.i, !llvm.loop !20

._crit_edge.i:                                    ; preds = %47, %18
  %.023.lcssa.i = phi i32 [ 1, %18 ], [ %.124.i, %47 ]
  store i32 %.023.lcssa.i, ptr %15, align 8
  %.pre = load ptr, ptr %5, align 8
  %.phi.trans.insert = getelementptr inbounds nuw i8, ptr %.pre, i64 16
  %.pre3 = load i32, ptr %.phi.trans.insert, align 8
  br label %eliminate_duplicate_dependencies.exit

eliminate_duplicate_dependencies.exit:            ; preds = %4, %._crit_edge.i
  %51 = phi i32 [ %16, %4 ], [ %.pre3, %._crit_edge.i ]
  %52 = phi ptr [ %14, %4 ], [ %.pre, %._crit_edge.i ]
  %53 = load ptr, ptr %52, align 8
  call void @recordMultipleDependencies(ptr noundef %0, ptr noundef %53, i32 noundef %51, i32 noundef %3) #9
  %54 = load ptr, ptr %5, align 8
  %55 = load ptr, ptr %54, align 8
  call void @pfree(ptr noundef %55) #9
  %56 = getelementptr inbounds nuw i8, ptr %54, i64 8
  %57 = load ptr, ptr %56, align 8
  %.not.i = icmp eq ptr %57, null
  br i1 %.not.i, label %free_object_addresses.exit, label %58

58:                                               ; preds = %eliminate_duplicate_dependencies.exit
  call void @pfree(ptr noundef nonnull %57) #9
  br label %free_object_addresses.exit

free_object_addresses.exit:                       ; preds = %eliminate_duplicate_dependencies.exit, %58
  call void @pfree(ptr noundef nonnull %54) #9
  call void @llvm.lifetime.end.p0(i64 16, ptr nonnull %5) #9
  ret void
}